target datalayout = "e-m:e-p270:32:32-p271:32:32-p272:64:64-i64:64-i128:128-f80:128-n8:16:32:64-S128"
target triple = "x86_64-pc-linux-gnu"

%struct.Msat_Solver_t_ = type { i32, i32, ptr, ptr, double, double, ptr, ptr, double, double, ptr, ptr, ptr, i32, i32, ptr, ptr, ptr, ptr, ptr, ptr, i32, double, i32, double, ptr, ptr, ptr, ptr, i32, ptr, ptr, ptr, ptr, %struct.Msat_SolverStats_t_, i32, i32, i32, i32, i32, i32 }
%struct.Msat_SolverStats_t_ = type { i64, i64, i64, i64, i64, i64 }

@.str.2 = private unnamed_addr constant [2 x i8] c"\0A\00", align 1
@.str.11 = private unnamed_addr constant [3 x i8] c"wb\00", align 1
@.str.12 = private unnamed_addr constant [46 x i8] c"c Produced by Msat_SolverWriteDimacs() on %s\0A\00", align 1
@.str.13 = private unnamed_addr constant [13 x i8] c"p cnf %d %d\0A\00", align 1
@.str.14 = private unnamed_addr constant [8 x i8] c"%s%d 0\0A\00", align 1
@.str.15 = private unnamed_addr constant [2 x i8] c"-\00", align 1
@.str.16 = private unnamed_addr constant [1 x i8] zeroinitializer, align 1
@Msat_TimeStamp.Buffer = internal global [100 x i8] zeroinitializer, align 16

; Function Attrs: nounwind uwtable
define internal ptr @Msat_TimeStamp() #0 {
  %1 = alloca i64, align 8
  %2 = alloca ptr, align 8
  call void @llvm.lifetime.start.p0(i64 8, ptr %1) #5
  call void @llvm.lifetime.start.p0(i64 8, ptr %2) #5
  %3 = call i64 @time(ptr noundef %1) #5
  %4 = call ptr @localtime(ptr noundef %1) #5
  %5 = call ptr @asctime(ptr noundef %4) #5
  store ptr %5, ptr %2, align 8, !tbaa !39
  %6 = load ptr, ptr %2, align 8, !tbaa !39
  %7 = load ptr, ptr %2, align 8, !tbaa !39
  %8 = call i64 @strlen(ptr noundef %7) #6
  %9 = sub i64 %8, 1
  %10 = getelementptr inbounds nuw i8, ptr %6, i64 %9
  store i8 0, ptr %10, align 1, !tbaa !48
  %11 = load ptr, ptr %2, align 8, !tbaa !39
  %12 = call ptr @strcpy(ptr noundef @Msat_TimeStamp.Buffer, ptr noundef %11) #5
  call void @llvm.lifetime.end.p0(i64 8, ptr %2) #5
  call void @llvm.lifetime.end.p0(i64 8, ptr %1) #5
  ret ptr @Msat_TimeStamp.Buffer
}

; Function Attrs: nounwind uwtable
define void @Msat_SolverWriteDimacs(ptr noundef %0, ptr noundef %1) #0 {
  %3 = alloca ptr, align 8
  %4 = alloca ptr, align 8
  %5 = alloca ptr, align 8
  %6 = alloca ptr, align 8
  %7 = alloca i32, align 4
  %8 = alloca i32, align 4
  store ptr %0, ptr %3, align 8, !tbaa !3
  store ptr %1, ptr %4, align 8, !tbaa !39
  call void @llvm.lifetime.start.p0(i64 8, ptr %5) #5
  call void @llvm.lifetime.start.p0(i64 8, ptr %6) #5
  call void @llvm.lifetime.start.p0(i64 4, ptr %7) #5
  call void @llvm.lifetime.start.p0(i64 4, ptr %8) #5
  %9 = load ptr, ptr %3, align 8, !tbaa !3
  %10 = getelementptr inbounds nuw %struct.Msat_Solver_t_, ptr %9, i32 0, i32 2
  %11 = load ptr, ptr %10, align 8, !tbaa !29
  %12 = call i32 @Msat_ClauseVecReadSize(ptr noundef %11)
  %13 = load ptr, ptr %3, align 8, !tbaa !3
  %14 = getelementptr inbounds nuw %struct.Msat_Solver_t_, ptr %13, i32 0, i32 3
  %15 = load ptr, ptr %14, align 8, !tbaa !34
  %16 = call i32 @Msat_ClauseVecReadSize(ptr noundef %15)
  %17 = add nsw i32 %12, %16
  store i32 %17, ptr %7, align 4, !tbaa !8
  store i32 0, ptr %8, align 4, !tbaa !8
  br label %18

18:                                               ; preds = %36, %2
  %19 = load i32, ptr %8, align 4, !tbaa !8
  %20 = load ptr, ptr %3, align 8, !tbaa !3
  %21 = getelementptr inbounds nuw %struct.Msat_Solver_t_, ptr %20, i32 0, i32 13
  %22 = load i32, ptr %21, align 8, !tbaa !10
  %23 = icmp slt i32 %19, %22
  br i1 %23, label %24, label %39

24:                                               ; preds = %18
  %25 = load ptr, ptr %3, align 8, !tbaa !3
  %26 = getelementptr inbounds nuw %struct.Msat_Solver_t_, ptr %25, i32 0, i32 20
  %27 = load ptr, ptr %26, align 8, !tbaa !41
  %28 = load i32, ptr %8, align 4, !tbaa !8
  %29 = sext i32 %28 to i64
  %30 = getelementptr inbounds i32, ptr %27, i64 %29
  %31 = load i32, ptr %30, align 4, !tbaa !8
  %32 = icmp eq i32 %31, 0
  %33 = zext i1 %32 to i32
  %34 = load i32, ptr %7, align 4, !tbaa !8
  %35 = add nsw i32 %34, %33
  store i32 %35, ptr %7, align 4, !tbaa !8
  br label %36

36:                                               ; preds = %24
  %37 = load i32, ptr %8, align 4, !tbaa !8
  %38 = add nsw i32 %37, 1
  store i32 %38, ptr %8, align 4, !tbaa !8
  br label %18, !llvm.loop !42

39:                                               ; preds = %18
  %40 = load ptr, ptr %4, align 8, !tbaa !39
  %41 = call noalias ptr @fopen(ptr noundef %40, ptr noundef @.str.11)
  store ptr %41, ptr %5, align 8, !tbaa !43
  %42 = load ptr, ptr %5, align 8, !tbaa !43
  %43 = call ptr @Msat_TimeStamp()
  %44 = call i32 (ptr, ptr, ...) @fprintf(ptr noundef %42, ptr noundef @.str.12, ptr noundef %43) #5
  %45 = load ptr, ptr %5, align 8, !tbaa !43
  %46 = load ptr, ptr %3, align 8, !tbaa !3
  %47 = getelementptr inbounds nuw %struct.Msat_Solver_t_, ptr %46, i32 0, i32 13
  %48 = load i32, ptr %47, align 8, !tbaa !10
  %49 = load i32, ptr %7, align 4, !tbaa !8
  %50 = call i32 (ptr, ptr, ...) @fprintf(ptr noundef %45, ptr noundef @.str.13, i32 noundef %48, i32 noundef %49) #5
  %51 = load ptr, ptr %3, align 8, !tbaa !3
  %52 = getelementptr inbounds nuw %struct.Msat_Solver_t_, ptr %51, i32 0, i32 2
  %53 = load ptr, ptr %52, align 8, !tbaa !29
  %54 = call i32 @Msat_ClauseVecReadSize(ptr noundef %53)
  store i32 %54, ptr %7, align 4, !tbaa !8
  %55 = load ptr, ptr %3, align 8, !tbaa !3
  %56 = getelementptr inbounds nuw %struct.Msat_Solver_t_, ptr %55, i32 0, i32 2
  %57 = load ptr, ptr %56, align 8, !tbaa !29
  %58 = call ptr @Msat_ClauseVecReadArray(ptr noundef %57)
  store ptr %58, ptr %6, align 8, !tbaa !30
  store i32 0, ptr %8, align 4, !tbaa !8
  br label %59

59:                                               ; preds = %70, %39
  %60 = load i32, ptr %8, align 4, !tbaa !8
  %61 = load i32, ptr %7, align 4, !tbaa !8
  %62 = icmp slt i32 %60, %61
  br i1 %62, label %63, label %73

63:                                               ; preds = %59
  %64 = load ptr, ptr %5, align 8, !tbaa !43
  %65 = load ptr, ptr %6, align 8, !tbaa !30
  %66 = load i32, ptr %8, align 4, !tbaa !8
  %67 = sext i32 %66 to i64
  %68 = getelementptr inbounds ptr, ptr %65, i64 %67
  %69 = load ptr, ptr %68, align 8, !tbaa !31
  call void @Msat_ClauseWriteDimacs(ptr noundef %64, ptr noundef %69, i32 noundef 1)
  br label %70

70:                                               ; preds = %63
  %71 = load i32, ptr %8, align 4, !tbaa !8
  %72 = add nsw i32 %71, 1
  store i32 %72, ptr %8, align 4, !tbaa !8
  br label %59, !llvm.loop !45

73:                                               ; preds = %59
  %74 = load ptr, ptr %3, align 8, !tbaa !3
  %75 = getelementptr inbounds nuw %struct.Msat_Solver_t_, ptr %74, i32 0, i32 3
  %76 = load ptr, ptr %75, align 8, !tbaa !34
  %77 = call i32 @Msat_ClauseVecReadSize(ptr noundef %76)
  store i32 %77, ptr %7, align 4, !tbaa !8
  %78 = load ptr, ptr %3, align 8, !tbaa !3
  %79 = getelementptr inbounds nuw %struct.Msat_Solver_t_, ptr %78, i32 0, i32 3
  %80 = load ptr, ptr %79, align 8, !tbaa !34
  %81 = call ptr @Msat_ClauseVecReadArray(ptr noundef %80)
  store ptr %81, ptr %6, align 8, !tbaa !30
  store i32 0, ptr %8, align 4, !tbaa !8
  br label %82

82:                                               ; preds = %93, %73
  %83 = load i32, ptr %8, align 4, !tbaa !8
  %84 = load i32, ptr %7, align 4, !tbaa !8
  %85 = icmp slt i32 %83, %84
  br i1 %85, label %86, label %96

86:                                               ; preds = %82
  %87 = load ptr, ptr %5, align 8, !tbaa !43
  %88 = load ptr, ptr %6, align 8, !tbaa !30
  %89 = load i32, ptr %8, align 4, !tbaa !8
  %90 = sext i32 %89 to i64
  %91 = getelementptr inbounds ptr, ptr %88, i64 %90
  %92 = load ptr, ptr %91, align 8, !tbaa !31
  call void @Msat_ClauseWriteDimacs(ptr noundef %87, ptr noundef %92, i32 noundef 1)
  br label %93

93:                                               ; preds = %86
  %94 = load i32, ptr %8, align 4, !tbaa !8
  %95 = add nsw i32 %94, 1
  store i32 %95, ptr %8, align 4, !tbaa !8
  br label %82, !llvm.loop !46

96:                                               ; preds = %82
  store i32 0, ptr %8, align 4, !tbaa !8
  br label %97

97:                                               ; preds = %128, %96
  %98 = load i32, ptr %8, align 4, !tbaa !8
  %99 = load ptr, ptr %3, align 8, !tbaa !3
  %100 = getelementptr inbounds nuw %struct.Msat_Solver_t_, ptr %99, i32 0, i32 13
  %101 = load i32, ptr %100, align 8, !tbaa !10
  %102 = icmp slt i32 %98, %101
  br i1 %102, label %103, label %131

103:                                              ; preds = %97
  %104 = load ptr, ptr %3, align 8, !tbaa !3
  %105 = getelementptr inbounds nuw %struct.Msat_Solver_t_, ptr %104, i32 0, i32 20
  %106 = load ptr, ptr %105, align 8, !tbaa !41
  %107 = load i32, ptr %8, align 4, !tbaa !8
  %108 = sext i32 %107 to i64
  %109 = getelementptr inbounds i32, ptr %106, i64 %108
  %110 = load i32, ptr %109, align 4, !tbaa !8
  %111 = icmp eq i32 %110, 0
  br i1 %111, label %112, label %127

112:                                              ; preds = %103
  %113 = load ptr, ptr %5, align 8, !tbaa !43
  %114 = load ptr, ptr %3, align 8, !tbaa !3
  %115 = getelementptr inbounds nuw %struct.Msat_Solver_t_, ptr %114, i32 0, i32 15
  %116 = load ptr, ptr %115, align 8, !tbaa !27
  %117 = load i32, ptr %8, align 4, !tbaa !8
  %118 = sext i32 %117 to i64
  %119 = getelementptr inbounds i32, ptr %116, i64 %118
  %120 = load i32, ptr %119, align 4, !tbaa !8
  %121 = and i32 %120, 1
  %122 = icmp ne i32 %121, 0
  %123 = select i1 %122, ptr @.str.15, ptr @.str.16
  %124 = load i32, ptr %8, align 4, !tbaa !8
  %125 = add nsw i32 %124, 1
  %126 = call i32 (ptr, ptr, ...) @fprintf(ptr noundef %113, ptr noundef @.str.14, ptr noundef %123, i32 noundef %125) #5
  br label %127

127:                                              ; preds = %112, %103
  br label %128

128:                                              ; preds = %127
  %129 = load i32, ptr %8, align 4, !tbaa !8
  %130 = add nsw i32 %129, 1
  store i32 %130, ptr %8, align 4, !tbaa !8
  br label %97, !llvm.loop !47

131:                                              ; preds = %97
  %132 = load ptr, ptr %5, align 8, !tbaa !43
  %133 = call i32 (ptr, ptr, ...) @fprintf(ptr noundef %132, ptr noundef @.str.2) #5
  %134 = load ptr, ptr %5, align 8, !tbaa !43
  %135 = call i32 @fclose(ptr noundef %134)
  call void @llvm.lifetime.end.p0(i64 4, ptr %8) #5
  call void @llvm.lifetime.end.p0(i64 4, ptr %7) #5
  call void @llvm.lifetime.end.p0(i64 8, ptr %6) #5
  call void @llvm.lifetime.end.p0(i64 8, ptr %5) #5
  ret void
}