; Function Attrs: nounwind uwtable
define void @Msat_SolverWriteDimacs(ptr noundef readonly captures(none) %0, ptr noundef readonly captures(none) %1) local_unnamed_addr #3 {
  %3 = alloca i64, align 8
  %4 = getelementptr inbounds nuw i8, ptr %0, i64 8
  %5 = load ptr, ptr %4, align 8, !tbaa !27
  %6 = tail call i32 @Msat_ClauseVecReadSize(ptr noundef %5) #9
  %7 = getelementptr inbounds nuw i8, ptr %0, i64 16
  %8 = load ptr, ptr %7, align 8, !tbaa !31
  %9 = tail call i32 @Msat_ClauseVecReadSize(ptr noundef %8) #9
  %10 = add nsw i32 %9, %6
  %11 = getelementptr inbounds nuw i8, ptr %0, i64 96
  %12 = load i32, ptr %11, align 8, !tbaa !3
  %13 = icmp sgt i32 %12, 0
  br i1 %13, label %.lr.ph, label %._crit_edge

.lr.ph:                                           ; preds = %2
  %14 = getelementptr inbounds nuw i8, ptr %0, i64 144
  %15 = load ptr, ptr %14, align 8, !tbaa !36
  %wide.trip.count = zext nneg i32 %12 to i64
  br label %16

16:                                               ; preds = %.lr.ph, %16
  %indvars.iv = phi i64 [ 0, %.lr.ph ], [ %indvars.iv.next, %16 ]
  %.03940 = phi i32 [ %10, %.lr.ph ], [ %21, %16 ]
  %17 = getelementptr inbounds nuw i32, ptr %15, i64 %indvars.iv
  %18 = load i32, ptr %17, align 4, !tbaa !25
  %19 = icmp eq i32 %18, 0
  %20 = zext i1 %19 to i32
  %21 = add nsw i32 %.03940, %20
  %indvars.iv.next = add nuw nsw i64 %indvars.iv, 1
  %exitcond.not = icmp eq i64 %indvars.iv.next, %wide.trip.count
  br i1 %exitcond.not, label %._crit_edge, label %16, !llvm.loop !37

._crit_edge:                                      ; preds = %16, %2
  %.039.lcssa = phi i32 [ %10, %2 ], [ %21, %16 ]
  %22 = tail call noalias ptr @fopen(ptr noundef %1, ptr noundef nonnull @.str.11)
  call void @llvm.lifetime.start.p0(i64 8, ptr nonnull %3) #9
  %23 = call i64 @time(ptr noundef nonnull %3) #9
  %24 = call ptr @localtime(ptr noundef nonnull %3) #9
  %25 = call ptr @asctime(ptr noundef %24) #9
  %26 = call i64 @strlen(ptr noundef nonnull dereferenceable(1) %25) #10
  %27 = getelementptr i8, ptr %25, i64 %26
  %28 = getelementptr i8, ptr %27, i64 -1
  store i8 0, ptr %28, align 1, !tbaa !38
  %29 = call ptr @strcpy(ptr noundef nonnull dereferenceable(1) @Msat_TimeStamp.Buffer, ptr noundef nonnull dereferenceable(1) %25) #9
  call void @llvm.lifetime.end.p0(i64 8, ptr nonnull %3) #9
  %30 = call i32 (ptr, ptr, ...) @fprintf(ptr noundef %22, ptr noundef nonnull @.str.12, ptr noundef nonnull @Msat_TimeStamp.Buffer) #9
  %31 = load i32, ptr %11, align 8, !tbaa !3
  %32 = call i32 (ptr, ptr, ...) @fprintf(ptr noundef %22, ptr noundef nonnull @.str.13, i32 noundef %31, i32 noundef %.039.lcssa) #9
  %33 = load ptr, ptr %4, align 8, !tbaa !27
  %34 = call i32 @Msat_ClauseVecReadSize(ptr noundef %33) #9
  %35 = load ptr, ptr %4, align 8, !tbaa !27
  %36 = call ptr @Msat_ClauseVecReadArray(ptr noundef %35) #9
  %37 = icmp sgt i32 %34, 0
  br i1 %37, label %.lr.ph44.preheader, label %._crit_edge45

.lr.ph44.preheader:                               ; preds = %._crit_edge
  %wide.trip.count56 = zext nneg i32 %34 to i64
  br label %.lr.ph44

.lr.ph44:                                         ; preds = %.lr.ph44.preheader, %.lr.ph44
  %indvars.iv53 = phi i64 [ 0, %.lr.ph44.preheader ], [ %indvars.iv.next54, %.lr.ph44 ]
  %38 = getelementptr inbounds nuw ptr, ptr %36, i64 %indvars.iv53
  %39 = load ptr, ptr %38, align 8, !tbaa !28
  call void @Msat_ClauseWriteDimacs(ptr noundef %22, ptr noundef %39, i32 noundef 1) #9
  %indvars.iv.next54 = add nuw nsw i64 %indvars.iv53, 1
  %exitcond57.not = icmp eq i64 %indvars.iv.next54, %wide.trip.count56
  br i1 %exitcond57.not, label %._crit_edge45, label %.lr.ph44, !llvm.loop !39

._crit_edge45:                                    ; preds = %.lr.ph44, %._crit_edge
  %40 = load ptr, ptr %7, align 8, !tbaa !31
  %41 = call i32 @Msat_ClauseVecReadSize(ptr noundef %40) #9
  %42 = load ptr, ptr %7, align 8, !tbaa !31
  %43 = call ptr @Msat_ClauseVecReadArray(ptr noundef %42) #9
  %44 = icmp sgt i32 %41, 0
  br i1 %44, label %.lr.ph48.preheader, label %.preheader

.lr.ph48.preheader:                               ; preds = %._crit_edge45
  %wide.trip.count61 = zext nneg i32 %41 to i64
  br label %.lr.ph48

.preheader:                                       ; preds = %.lr.ph48, %._crit_edge45
  %45 = load i32, ptr %11, align 8, !tbaa !3
  %46 = icmp sgt i32 %45, 0
  br i1 %46, label %.lr.ph50, label %._crit_edge51

.lr.ph50:                                         ; preds = %.preheader
  %47 = getelementptr inbounds nuw i8, ptr %0, i64 144
  %48 = getelementptr inbounds nuw i8, ptr %0, i64 104
  br label %51

.lr.ph48:                                         ; preds = %.lr.ph48.preheader, %.lr.ph48
  %indvars.iv58 = phi i64 [ 0, %.lr.ph48.preheader ], [ %indvars.iv.next59, %.lr.ph48 ]
  %49 = getelementptr inbounds nuw ptr, ptr %43, i64 %indvars.iv58
  %50 = load ptr, ptr %49, align 8, !tbaa !28
  call void @Msat_ClauseWriteDimacs(ptr noundef %22, ptr noundef %50, i32 noundef 1) #9
  %indvars.iv.next59 = add nuw nsw i64 %indvars.iv58, 1
  %exitcond62.not = icmp eq i64 %indvars.iv.next59, %wide.trip.count61
  br i1 %exitcond62.not, label %.preheader, label %.lr.ph48, !llvm.loop !40

51:                                               ; preds = %.lr.ph50, %66
  %52 = phi i32 [ %45, %.lr.ph50 ], [ %67, %66 ]
  %indvars.iv63 = phi i64 [ 0, %.lr.ph50 ], [ %indvars.iv.next64.pre-phi, %66 ]
  %53 = load ptr, ptr %47, align 8, !tbaa !36
  %54 = getelementptr inbounds nuw i32, ptr %53, i64 %indvars.iv63
  %55 = load i32, ptr %54, align 4, !tbaa !25
  %56 = icmp eq i32 %55, 0
  br i1 %56, label %57, label %._crit_edge66

._crit_edge66:                                    ; preds = %51
  %.pre67 = add nuw nsw i64 %indvars.iv63, 1
  br label %66

57:                                               ; preds = %51
  %58 = load ptr, ptr %48, align 8, !tbaa !24
  %59 = getelementptr inbounds nuw i32, ptr %58, i64 %indvars.iv63
  %60 = load i32, ptr %59, align 4, !tbaa !25
  %61 = and i32 %60, 1
  %.not = icmp eq i32 %61, 0
  %62 = select i1 %.not, ptr @.str.16, ptr @.str.15
  %63 = add nuw nsw i64 %indvars.iv63, 1
  %64 = trunc nuw nsw i64 %63 to i32
  %65 = call i32 (ptr, ptr, ...) @fprintf(ptr noundef %22, ptr noundef nonnull @.str.14, ptr noundef nonnull %62, i32 noundef %64) #9
  %.pre = load i32, ptr %11, align 8, !tbaa !3
  br label %66

66:                                               ; preds = %._crit_edge66, %57
  %indvars.iv.next64.pre-phi = phi i64 [ %.pre67, %._crit_edge66 ], [ %63, %57 ]
  %67 = phi i32 [ %52, %._crit_edge66 ], [ %.pre, %57 ]
  %68 = sext i32 %67 to i64
  %69 = icmp slt i64 %indvars.iv.next64.pre-phi, %68
  br i1 %69, label %51, label %._crit_edge51, !llvm.loop !41

._crit_edge51:                                    ; preds = %66, %.preheader
  %fputc = call i32 @fputc(i32 10, ptr %22)
  %70 = call i32 @fclose(ptr noundef %22)
  ret void
}